; Function Attrs: mustprogress uwtable
define internal void @_ZN4absl12lts_2024072222internal_any_invocable12LocalInvokerILb0EvRZN17grpc_event_engine12experimental12_GLOBAL__N_126EventEngineEndpointWrapper4ReadEP12grpc_closureP17grpc_slice_bufferPKNS4_11EventEngine8Endpoint8ReadArgsEEUlNS0_6StatusEE_JSG_EEET0_PNS1_15TypeErasedStateEDpNS1_18ForwardedParameterIT2_E4typeE(ptr noundef readonly captures(none) %0, ptr noundef nonnull align 8 captures(none) dereferenceable(8) %1) #3 personality ptr @__gxx_personality_v0 {
  %3 = alloca %"class.absl::lts_20240722::Status", align 8
  %4 = alloca %"class.absl::lts_20240722::Status", align 8
  %.val = load ptr, ptr %0, align 8, !tbaa !135
  call void @llvm.lifetime.start.p0(i64 8, ptr nonnull %4)
  %5 = load i64, ptr %1, align 8, !tbaa !23
  store i64 %5, ptr %4, align 8, !tbaa !23
  store i64 55, ptr %1, align 8, !tbaa !23
  call void @llvm.lifetime.start.p0(i64 8, ptr nonnull %3)
  store i64 %5, ptr %3, align 8, !tbaa !23
  %6 = and i64 %5, 1
  %.not.i.i.i.i.i.i.i = icmp eq i64 %6, 0
  br i1 %.not.i.i.i.i.i.i.i, label %7, label %_ZN4absl12lts_202407226StatusC2ERKS1_.exit.i.i.i.i.i

7:                                                ; preds = %2
  %8 = inttoptr i64 %5 to ptr
  %9 = atomicrmw add ptr %8, i32 1 monotonic, align 4
  br label %_ZN4absl12lts_202407226StatusC2ERKS1_.exit.i.i.i.i.i

_ZN4absl12lts_202407226StatusC2ERKS1_.exit.i.i.i.i.i: ; preds = %7, %2
  invoke fastcc void @_ZN17grpc_event_engine12experimental12_GLOBAL__N_126EventEngineEndpointWrapper17FinishPendingReadEN4absl12lts_202407226StatusE(ptr noundef nonnull align 16 dereferenceable(164) %.val, ptr noundef %3)
          to label %10 unwind label %.body.i.i.i.i

10:                                               ; preds = %_ZN4absl12lts_202407226StatusC2ERKS1_.exit.i.i.i.i.i
  %11 = load i64, ptr %3, align 8, !tbaa !23
  %12 = and i64 %11, 1
  %.not.i.i2.i.i.i.i.i = icmp eq i64 %12, 0
  br i1 %.not.i.i2.i.i.i.i.i, label %13, label %19

13:                                               ; preds = %10
  %14 = inttoptr i64 %11 to ptr
  invoke void @_ZNK4absl12lts_2024072215status_internal9StatusRep5UnrefEv(ptr noundef nonnull align 8 dereferenceable(48) %14)
          to label %19 unwind label %15

15:                                               ; preds = %13
  %16 = landingpad { ptr, i32 }
          catch ptr null
  %17 = extractvalue { ptr, i32 } %16, 0
  call void @__clang_call_terminate(ptr %17) #29
  unreachable

.body.i.i.i.i:                                    ; preds = %_ZN4absl12lts_202407226StatusC2ERKS1_.exit.i.i.i.i.i
  %18 = landingpad { ptr, i32 }
          cleanup
  call void @_ZN4absl12lts_202407226StatusD2Ev(ptr noundef nonnull align 8 dereferenceable(8) %3) #28
  call void @_ZN4absl12lts_202407226StatusD2Ev(ptr noundef nonnull align 8 dereferenceable(8) %4) #28
  resume { ptr, i32 } %18

19:                                               ; preds = %13, %10
  call void @llvm.lifetime.end.p0(i64 8, ptr nonnull %3)
  br i1 %.not.i.i.i.i.i.i.i, label %20, label %_ZN4absl12lts_2024072222internal_any_invocable7InvokeRIvRZN17grpc_event_engine12experimental12_GLOBAL__N_126EventEngineEndpointWrapper4ReadEP12grpc_closureP17grpc_slice_bufferPKNS4_11EventEngine8Endpoint8ReadArgsEEUlNS0_6StatusEE_JSG_EvEEvOT0_DpOT1_.exit

20:                                               ; preds = %19
  %21 = inttoptr i64 %5 to ptr
  invoke void @_ZNK4absl12lts_2024072215status_internal9StatusRep5UnrefEv(ptr noundef nonnull align 8 dereferenceable(48) %21)
          to label %_ZN4absl12lts_2024072222internal_any_invocable7InvokeRIvRZN17grpc_event_engine12experimental12_GLOBAL__N_126EventEngineEndpointWrapper4ReadEP12grpc_closureP17grpc_slice_bufferPKNS4_11EventEngine8Endpoint8ReadArgsEEUlNS0_6StatusEE_JSG_EvEEvOT0_DpOT1_.exit unwind label %22

22:                                               ; preds = %20
  %23 = landingpad { ptr, i32 }
          catch ptr null
  %24 = extractvalue { ptr, i32 } %23, 0
  call void @__clang_call_terminate(ptr %24) #29
  unreachable

_ZN4absl12lts_2024072222internal_any_invocable7InvokeRIvRZN17grpc_event_engine12experimental12_GLOBAL__N_126EventEngineEndpointWrapper4ReadEP12grpc_closureP17grpc_slice_bufferPKNS4_11EventEngine8Endpoint8ReadArgsEEUlNS0_6StatusEE_JSG_EvEEvOT0_DpOT1_.exit: ; preds = %19, %20
  call void @llvm.lifetime.end.p0(i64 8, ptr nonnull %4)
  ret void
}